target datalayout = "e-m:e-p270:32:32-p271:32:32-p272:64:64-i64:64-i128:128-f80:128-n8:16:32:64-S128"
target triple = "x86_64-unknown-linux-gnu"

%"class.google::protobuf::internal::InternalMetadata" = type { i64 }
%"class.google::protobuf::internal::HasBits" = type { [1 x i32] }
%"class.google::protobuf::internal::CachedSize" = type { i32 }
%"class.pb::CppFeatures" = type <{ %"class.google::protobuf::Message", %union.anon, [4 x i8] }>
%"class.google::protobuf::Message" = type { %"class.google::protobuf::MessageLite" }
%"class.google::protobuf::MessageLite" = type { ptr, %"class.google::protobuf::internal::InternalMetadata" }
%union.anon = type { %"struct.pb::CppFeatures::Impl_" }
%"struct.pb::CppFeatures::Impl_" = type <{ %"class.google::protobuf::internal::HasBits", %"class.google::protobuf::internal::CachedSize", i8, [3 x i8] }>
%"struct.google::protobuf::internal::InternalMetadata::Container" = type { %"struct.google::protobuf::internal::InternalMetadata::ContainerBase", %"class.google::protobuf::UnknownFieldSet" }
%"struct.google::protobuf::internal::InternalMetadata::ContainerBase" = type { ptr }
%"class.google::protobuf::UnknownFieldSet" = type { %"class.std::vector" }
%"class.std::vector" = type { %"struct.std::_Vector_base" }
%"struct.std::_Vector_base" = type { %"struct.std::_Vector_base<google::protobuf::UnknownField, std::allocator<google::protobuf::UnknownField>>::_Vector_impl" }
%"struct.std::_Vector_base<google::protobuf::UnknownField, std::allocator<google::protobuf::UnknownField>>::_Vector_impl" = type { %"struct.std::_Vector_base<google::protobuf::UnknownField, std::allocator<google::protobuf::UnknownField>>::_Vector_impl_data" }
%"struct.std::_Vector_base<google::protobuf::UnknownField, std::allocator<google::protobuf::UnknownField>>::_Vector_impl_data" = type { ptr, ptr, ptr }
%"class.google::protobuf::io::EpsCopyOutputStream" = type <{ ptr, ptr, [32 x i8], ptr, i8, i8, i8, i8, [4 x i8] }>

; Function Attrs: mustprogress nounwind uwtable
define linkonce_odr hidden noundef ptr @_ZNK6google8protobuf8internal16InternalMetadata8PtrValueINS2_9ContainerINS0_15UnknownFieldSetEEEEEPT_v(ptr noundef nonnull align 8 dereferenceable(8) %this) #5 comdat align 2 {
entry:
  %this.addr = alloca ptr, align 8
  store ptr %this, ptr %this.addr, align 8
  %this1 = load ptr, ptr %this.addr, align 8
  %ptr_ = getelementptr inbounds %"class.google::protobuf::internal::InternalMetadata", ptr %this1, i32 0, i32 0
  %0 = load i64, ptr %ptr_, align 8
  %and = and i64 %0, -2
  %1 = inttoptr i64 %and to ptr
  ret ptr %1
}

; Function Attrs: mustprogress uwtable
define linkonce_odr hidden noundef ptr @_ZN6google8protobuf2io17CodedOutputStream20WriteVarint32ToArrayEjPh(i32 noundef %value, ptr noundef %target) #4 comdat align 2 {
entry:
  %value.addr.i = alloca i32, align 4
  %ptr.addr.i = alloca ptr, align 8
  %value.addr = alloca i32, align 4
  %target.addr = alloca ptr, align 8
  store i32 %value, ptr %value.addr, align 4
  store ptr %target, ptr %target.addr, align 8
  %0 = load i32, ptr %value.addr, align 4
  %1 = load ptr, ptr %target.addr, align 8
  store i32 %0, ptr %value.addr.i, align 4
  store ptr %1, ptr %ptr.addr.i, align 8
  br label %while.cond.i

while.cond.i:                                     ; preds = %while.body.i, %entry
  %2 = load i32, ptr %value.addr.i, align 4
  %cmp.i = icmp uge i32 %2, 128
  br i1 %cmp.i, label %while.body.i, label %_ZN6google8protobuf2io19EpsCopyOutputStream12UnsafeVarintIjEEPhT_S4_.exit

while.body.i:                                     ; preds = %while.cond.i
  %3 = load i32, ptr %value.addr.i, align 4
  %or.i = or i32 %3, 128
  %conv.i = trunc i32 %or.i to i8
  %4 = load ptr, ptr %ptr.addr.i, align 8
  store i8 %conv.i, ptr %4, align 1
  %5 = load i32, ptr %value.addr.i, align 4
  %shr.i = lshr i32 %5, 7
  store i32 %shr.i, ptr %value.addr.i, align 4
  %6 = load ptr, ptr %ptr.addr.i, align 8
  %incdec.ptr.i = getelementptr inbounds i8, ptr %6, i32 1
  store ptr %incdec.ptr.i, ptr %ptr.addr.i, align 8
  br label %while.cond.i, !llvm.loop !9

_ZN6google8protobuf2io19EpsCopyOutputStream12UnsafeVarintIjEEPhT_S4_.exit: ; preds = %while.cond.i
  %7 = load i32, ptr %value.addr.i, align 4
  %conv1.i = trunc i32 %7 to i8
  %8 = load ptr, ptr %ptr.addr.i, align 8
  %incdec.ptr2.i = getelementptr inbounds i8, ptr %8, i32 1
  store ptr %incdec.ptr2.i, ptr %ptr.addr.i, align 8
  store i8 %conv1.i, ptr %8, align 1
  %9 = load ptr, ptr %ptr.addr.i, align 8
  ret ptr %9
}

; Function Attrs: mustprogress nounwind uwtable
define linkonce_odr hidden noundef i32 @_ZN6google8protobuf8internal14WireFormatLite7MakeTagEiNS2_8WireTypeE(i32 noundef %field_number, i32 noundef %type) #5 comdat align 2 {
entry:
  %field_number.addr = alloca i32, align 4
  %type.addr = alloca i32, align 4
  store i32 %field_number, ptr %field_number.addr, align 4
  store i32 %type, ptr %type.addr, align 4
  %0 = load i32, ptr %field_number.addr, align 4
  %shl = shl i32 %0, 3
  %1 = load i32, ptr %type.addr, align 4
  %or = or i32 %shl, %1
  ret i32 %or
}

; Function Attrs: mustprogress nounwind uwtable
define linkonce_odr hidden noundef zeroext i1 @_ZNK2pb11CppFeatures28_internal_legacy_closed_enumEv(ptr noundef nonnull align 8 dereferenceable(32) %this) #5 comdat align 2 {
entry:
  %this.addr = alloca ptr, align 8
  store ptr %this, ptr %this.addr, align 8
  %this1 = load ptr, ptr %this.addr, align 8
  %0 = getelementptr inbounds %"class.pb::CppFeatures", ptr %this1, i32 0, i32 1
  %legacy_closed_enum_ = getelementptr inbounds %"struct.pb::CppFeatures::Impl_", ptr %0, i32 0, i32 2
  %1 = load i8, ptr %legacy_closed_enum_, align 8
  %tobool = trunc i8 %1 to i1
  ret i1 %tobool
}

; Function Attrs: mustprogress uwtable
define linkonce_odr hidden noundef ptr @_ZN6google8protobuf2io19EpsCopyOutputStream11EnsureSpaceEPh(ptr noundef nonnull align 8 dereferenceable(60) %this, ptr noundef %ptr) #4 comdat align 2 {
entry:
  %retval = alloca ptr, align 8
  %this.addr = alloca ptr, align 8
  %ptr.addr = alloca ptr, align 8
  store ptr %this, ptr %this.addr, align 8
  store ptr %ptr, ptr %ptr.addr, align 8
  %this1 = load ptr, ptr %this.addr, align 8
  %0 = load ptr, ptr %ptr.addr, align 8
  %end_ = getelementptr inbounds %"class.google::protobuf::io::EpsCopyOutputStream", ptr %this1, i32 0, i32 0
  %1 = load ptr, ptr %end_, align 8
  %cmp = icmp uge ptr %0, %1
  br i1 %cmp, label %if.then, label %if.end

if.then:                                          ; preds = %entry
  %2 = load ptr, ptr %ptr.addr, align 8
  %call = call noundef ptr @_ZN6google8protobuf2io19EpsCopyOutputStream19EnsureSpaceFallbackEPh(ptr noundef nonnull align 8 dereferenceable(60) %this1, ptr noundef %2)
  store ptr %call, ptr %retval, align 8
  br label %return

if.end:                                           ; preds = %entry
  %3 = load ptr, ptr %ptr.addr, align 8
  store ptr %3, ptr %retval, align 8
  br label %return

return:                                           ; preds = %if.end, %if.then
  %4 = load ptr, ptr %retval, align 8
  ret ptr %4
}

; Function Attrs: mustprogress uwtable
define noundef ptr @_ZNK2pb11CppFeatures18_InternalSerializeEPhPN6google8protobuf2io19EpsCopyOutputStreamE(ptr noundef nonnull align 8 dereferenceable(32) %this, ptr noundef %target, ptr noundef %stream) unnamed_addr #4 align 2 {
entry:
  %this.addr.i30 = alloca ptr, align 8
  %this.addr.i27 = alloca ptr, align 8
  %value.addr.i24 = alloca i32, align 4
  %target.addr.i25 = alloca ptr, align 8
  %value.addr.i20 = alloca i8, align 1
  %target.addr.i21 = alloca ptr, align 8
  %field_number.addr.i16 = alloca i32, align 4
  %type.addr.i = alloca i32, align 4
  %target.addr.i17 = alloca ptr, align 8
  %this.addr.i.i = alloca ptr, align 8
  %retval.i = alloca ptr, align 8
  %this.addr.i14 = alloca ptr, align 8
  %default_instance.addr.i = alloca ptr, align 8
  %this.addr.i11 = alloca ptr, align 8
  %field_number.addr.i = alloca i32, align 4
  %value.addr.i = alloca i8, align 1
  %target.addr.i = alloca ptr, align 8
  %this.addr.i = alloca ptr, align 8
  %index.addr.i = alloca i32, align 4
  %this.addr = alloca ptr, align 8
  %target.addr = alloca ptr, align 8
  %stream.addr = alloca ptr, align 8
  %cached_has_bits = alloca i32, align 4
  store ptr %this, ptr %this.addr, align 8
  store ptr %target, ptr %target.addr, align 8
  store ptr %stream, ptr %stream.addr, align 8
  %this1 = load ptr, ptr %this.addr, align 8
  store i32 0, ptr %cached_has_bits, align 4
  %0 = getelementptr inbounds %"class.pb::CppFeatures", ptr %this1, i32 0, i32 1
  %_has_bits_ = getelementptr inbounds %"struct.pb::CppFeatures::Impl_", ptr %0, i32 0, i32 0
  store ptr %_has_bits_, ptr %this.addr.i, align 8
  store i32 0, ptr %index.addr.i, align 4
  %this1.i = load ptr, ptr %this.addr.i, align 8
  %1 = load i32, ptr %index.addr.i, align 4
  %idxprom.i = sext i32 %1 to i64
  %arrayidx.i = getelementptr inbounds [1 x i32], ptr %this1.i, i64 0, i64 %idxprom.i
  %2 = load i32, ptr %arrayidx.i, align 4
  store i32 %2, ptr %cached_has_bits, align 4
  %3 = load i32, ptr %cached_has_bits, align 4
  %and = and i32 %3, 1
  %tobool = icmp ne i32 %and, 0
  br i1 %tobool, label %if.then, label %if.end

if.then:                                          ; preds = %entry
  %4 = load ptr, ptr %stream.addr, align 8
  %5 = load ptr, ptr %target.addr, align 8
  %call2 = call noundef ptr @_ZN6google8protobuf2io19EpsCopyOutputStream11EnsureSpaceEPh(ptr noundef nonnull align 8 dereferenceable(60) %4, ptr noundef %5)
  store ptr %call2, ptr %target.addr, align 8
  %call3 = call noundef zeroext i1 @_ZNK2pb11CppFeatures28_internal_legacy_closed_enumEv(ptr noundef nonnull align 8 dereferenceable(32) %this1)
  %6 = load ptr, ptr %target.addr, align 8
  store i32 1, ptr %field_number.addr.i, align 4
  %frombool.i = zext i1 %call3 to i8
  store i8 %frombool.i, ptr %value.addr.i, align 1
  store ptr %6, ptr %target.addr.i, align 8
  %7 = load i32, ptr %field_number.addr.i, align 4
  %8 = load ptr, ptr %target.addr.i, align 8
  store i32 %7, ptr %field_number.addr.i16, align 4
  store i32 0, ptr %type.addr.i, align 4
  store ptr %8, ptr %target.addr.i17, align 8
  %9 = load i32, ptr %field_number.addr.i16, align 4
  %10 = load i32, ptr %type.addr.i, align 4
  %call.i18 = call noundef i32 @_ZN6google8protobuf8internal14WireFormatLite7MakeTagEiNS2_8WireTypeE(i32 noundef %9, i32 noundef %10)
  %11 = load ptr, ptr %target.addr.i17, align 8
  store i32 %call.i18, ptr %value.addr.i24, align 4
  store ptr %11, ptr %target.addr.i25, align 8
  %12 = load i32, ptr %value.addr.i24, align 4
  %13 = load ptr, ptr %target.addr.i25, align 8
  %call.i26 = call noundef ptr @_ZN6google8protobuf2io17CodedOutputStream20WriteVarint32ToArrayEjPh(i32 noundef %12, ptr noundef %13)
  store ptr %call.i26, ptr %target.addr.i, align 8
  %14 = load i8, ptr %value.addr.i, align 1
  %tobool.i = trunc i8 %14 to i1
  %15 = load ptr, ptr %target.addr.i, align 8
  %frombool.i22 = zext i1 %tobool.i to i8
  store i8 %frombool.i22, ptr %value.addr.i20, align 1
  store ptr %15, ptr %target.addr.i21, align 8
  %16 = load i8, ptr %value.addr.i20, align 1
  %tobool.i23 = trunc i8 %16 to i1
  %cond.i = select i1 %tobool.i23, i32 1, i32 0
  %17 = load ptr, ptr %target.addr.i21, align 8
  %call.i = call noundef ptr @_ZN6google8protobuf2io17CodedOutputStream20WriteVarint32ToArrayEjPh(i32 noundef %cond.i, ptr noundef %17)
  store ptr %call.i, ptr %target.addr, align 8
  br label %if.end

if.end:                                           ; preds = %if.then, %entry
  %_internal_metadata_ = getelementptr inbounds %"class.google::protobuf::MessageLite", ptr %this1, i32 0, i32 1
  store ptr %_internal_metadata_, ptr %this.addr.i11, align 8
  %this1.i12 = load ptr, ptr %this.addr.i11, align 8
  store ptr %this1.i12, ptr %this.addr.i30, align 8
  %this1.i31 = load ptr, ptr %this.addr.i30, align 8
  %18 = load i64, ptr %this1.i31, align 8
  %and.i32 = and i64 %18, 1
  %tobool.i33 = icmp ne i64 %and.i32, 0
  br i1 %tobool.i33, label %if.then6, label %if.end10

if.then6:                                         ; preds = %if.end
  %_internal_metadata_7 = getelementptr inbounds %"class.google::protobuf::MessageLite", ptr %this1, i32 0, i32 1
  store ptr %_internal_metadata_7, ptr %this.addr.i14, align 8
  store ptr @_ZN6google8protobuf15UnknownFieldSet16default_instanceEv, ptr %default_instance.addr.i, align 8
  %this1.i15 = load ptr, ptr %this.addr.i14, align 8
  store ptr %this1.i15, ptr %this.addr.i.i, align 8
  %this1.i.i = load ptr, ptr %this.addr.i.i, align 8
  store ptr %this1.i.i, ptr %this.addr.i27, align 8
  %this1.i28 = load ptr, ptr %this.addr.i27, align 8
  %19 = load i64, ptr %this1.i28, align 8
  %and.i = and i64 %19, 1
  %tobool.i29 = icmp ne i64 %and.i, 0
  br i1 %tobool.i29, label %if.then.i, label %if.else.i

if.then.i:                                        ; preds = %if.then6
  %call2.i = call noundef ptr @_ZNK6google8protobuf8internal16InternalMetadata8PtrValueINS2_9ContainerINS0_15UnknownFieldSetEEEEEPT_v(ptr noundef nonnull align 8 dereferenceable(8) %this1.i15)
  %unknown_fields.i = getelementptr inbounds %"struct.google::protobuf::internal::InternalMetadata::Container", ptr %call2.i, i32 0, i32 1
  store ptr %unknown_fields.i, ptr %retval.i, align 8
  br label %_ZNK6google8protobuf8internal16InternalMetadata14unknown_fieldsINS0_15UnknownFieldSetEEERKT_PFS7_vE.exit

if.else.i:                                        ; preds = %if.then6
  %20 = load ptr, ptr %default_instance.addr.i, align 8
  %call3.i = call noundef nonnull align 8 dereferenceable(24) ptr %20()
  store ptr %call3.i, ptr %retval.i, align 8
  br label %_ZNK6google8protobuf8internal16InternalMetadata14unknown_fieldsINS0_15UnknownFieldSetEEERKT_PFS7_vE.exit

_ZNK6google8protobuf8internal16InternalMetadata14unknown_fieldsINS0_15UnknownFieldSetEEERKT_PFS7_vE.exit: ; preds = %if.else.i, %if.then.i
  %21 = load ptr, ptr %retval.i, align 8
  %22 = load ptr, ptr %target.addr, align 8
  %23 = load ptr, ptr %stream.addr, align 8
  %call9 = call noundef ptr @_ZN6google8protobuf8internal10WireFormat37InternalSerializeUnknownFieldsToArrayERKNS0_15UnknownFieldSetEPhPNS0_2io19EpsCopyOutputStreamE(ptr noundef nonnull align 8 dereferenceable(24) %21, ptr noundef %22, ptr noundef %23)
  store ptr %call9, ptr %target.addr, align 8
  br label %if.end10

if.end10:                                         ; preds = %_ZNK6google8protobuf8internal16InternalMetadata14unknown_fieldsINS0_15UnknownFieldSetEEERKT_PFS7_vE.exit, %if.end
  %24 = load ptr, ptr %target.addr, align 8
  ret ptr %24
}